target datalayout = "e-m:e-p270:32:32-p271:32:32-p272:64:64-i64:64-i128:128-f80:128-n8:16:32:64-S128"
target triple = "x86_64-pc-linux-gnu"

%struct.png_struct_def = type { [1 x %struct.__jmp_buf_tag], ptr, ptr, i64, ptr, ptr, ptr, ptr, ptr, ptr, ptr, ptr, ptr, i8, i8, i32, i32, i32, i32, %struct.z_stream_s, ptr, i32, i32, i32, i32, i32, i32, i32, i32, i32, i32, i32, i32, i32, i32, i32, i32, i32, i32, i32, i32, i64, i32, i32, i32, ptr, ptr, ptr, ptr, i64, i32, i32, ptr, i16, i32, i16, i8, i8, i8, i8, i8, i8, i8, i8, i8, i8, i8, i8, i8, i8, i8, i16, i8, i32, %struct.png_color_16_struct, %struct.png_color_16_struct, ptr, i32, i32, i32, i32, ptr, ptr, ptr, ptr, ptr, ptr, %struct.png_color_8_struct, %struct.png_color_8_struct, ptr, %struct.png_color_16_struct, ptr, ptr, ptr, ptr, ptr, ptr, ptr, ptr, ptr, i32, i32, i64, i64, i64, i64, i32, i32, ptr, ptr, i32, [29 x i8], i32, ptr, ptr, i32, i32, ptr, i8, i8, i16, i16, ptr, i32, i8, ptr, ptr, ptr, ptr, ptr, ptr, ptr, i8, i32, i32, i32, i64, %struct.png_unknown_chunk_t, i64, ptr, i64, i32, i32, ptr, [4 x ptr], %struct.png_colorspace }
%struct.__jmp_buf_tag = type { [8 x i64], i32, %struct.__sigset_t }
%struct.__sigset_t = type { [16 x i64] }
%struct.z_stream_s = type { ptr, i32, i64, ptr, i32, i64, ptr, ptr, ptr, ptr, ptr, i32, i64, i64 }
%struct.png_color_8_struct = type { i8, i8, i8, i8, i8 }
%struct.png_color_16_struct = type { i8, i16, i16, i16, i16 }
%struct.png_unknown_chunk_t = type { [5 x i8], ptr, i64, i8 }
%struct.png_colorspace = type { i32, %struct.png_xy, %struct.png_XYZ, i16, i16 }
%struct.png_xy = type { i32, i32, i32, i32, i32, i32, i32, i32 }
%struct.png_XYZ = type { i32, i32, i32, i32, i32, i32, i32, i32, i32 }

@.str.7 = private unnamed_addr constant [32 x i8] c"Unknown row filter for method 0\00", align 1
@.str.8 = private unnamed_addr constant [57 x i8] c"png_set_filter: UP/AVG/PAETH cannot be added after start\00", align 1
@.str.9 = private unnamed_addr constant [29 x i8] c"Unknown custom filter method\00", align 1

; Function Attrs: nounwind uwtable
define void @png_set_filter(ptr noalias noundef %0, i32 noundef %1, i32 noundef %2) #0 {
  %4 = alloca ptr, align 8
  %5 = alloca i32, align 4
  %6 = alloca i32, align 4
  %7 = alloca i32, align 4
  %8 = alloca i64, align 8
  store ptr %0, ptr %4, align 8
  store i32 %1, ptr %5, align 4
  store i32 %2, ptr %6, align 4
  %9 = load ptr, ptr %4, align 8
  %10 = icmp eq ptr %9, null
  br i1 %10, label %11, label %12

11:                                               ; preds = %3
  br label %194

12:                                               ; preds = %3
  %13 = load ptr, ptr %4, align 8
  %14 = getelementptr inbounds %struct.png_struct_def, ptr %13, i32 0, i32 123
  %15 = load i32, ptr %14, align 8
  %16 = and i32 %15, 4
  %17 = icmp ne i32 %16, 0
  br i1 %17, label %18, label %22

18:                                               ; preds = %12
  %19 = load i32, ptr %5, align 4
  %20 = icmp eq i32 %19, 64
  br i1 %20, label %21, label %22

21:                                               ; preds = %18
  store i32 0, ptr %5, align 4
  br label %22

22:                                               ; preds = %21, %18, %12
  %23 = load i32, ptr %5, align 4
  %24 = icmp eq i32 %23, 0
  br i1 %24, label %25, label %192

25:                                               ; preds = %22
  %26 = load i32, ptr %6, align 4
  %27 = and i32 %26, 255
  switch i32 %27, label %45 [
    i32 5, label %28
    i32 6, label %28
    i32 7, label %28
    i32 0, label %30
    i32 1, label %33
    i32 2, label %36
    i32 3, label %39
    i32 4, label %42
  ]

28:                                               ; preds = %25, %25, %25
  %29 = load ptr, ptr %4, align 8
  call void @png_app_error(ptr noundef %29, ptr noundef @.str.7)
  br label %30

30:                                               ; preds = %28, %25
  %31 = load ptr, ptr %4, align 8
  %32 = getelementptr inbounds %struct.png_struct_def, ptr %31, i32 0, i32 60
  store i8 8, ptr %32, align 2
  br label %50

33:                                               ; preds = %25
  %34 = load ptr, ptr %4, align 8
  %35 = getelementptr inbounds %struct.png_struct_def, ptr %34, i32 0, i32 60
  store i8 16, ptr %35, align 2
  br label %50

36:                                               ; preds = %25
  %37 = load ptr, ptr %4, align 8
  %38 = getelementptr inbounds %struct.png_struct_def, ptr %37, i32 0, i32 60
  store i8 32, ptr %38, align 2
  br label %50

39:                                               ; preds = %25
  %40 = load ptr, ptr %4, align 8
  %41 = getelementptr inbounds %struct.png_struct_def, ptr %40, i32 0, i32 60
  store i8 64, ptr %41, align 2
  br label %50

42:                                               ; preds = %25
  %43 = load ptr, ptr %4, align 8
  %44 = getelementptr inbounds %struct.png_struct_def, ptr %43, i32 0, i32 60
  store i8 -128, ptr %44, align 2
  br label %50

45:                                               ; preds = %25
  %46 = load i32, ptr %6, align 4
  %47 = trunc i32 %46 to i8
  %48 = load ptr, ptr %4, align 8
  %49 = getelementptr inbounds %struct.png_struct_def, ptr %48, i32 0, i32 60
  store i8 %47, ptr %49, align 2
  br label %50

50:                                               ; preds = %45, %42, %39, %36, %33, %30
  %51 = load ptr, ptr %4, align 8
  %52 = getelementptr inbounds %struct.png_struct_def, ptr %51, i32 0, i32 46
  %53 = load ptr, ptr %52, align 8
  %54 = icmp ne ptr %53, null
  br i1 %54, label %55, label %187

55:                                               ; preds = %50
  %56 = load ptr, ptr %4, align 8
  %57 = getelementptr inbounds %struct.png_struct_def, ptr %56, i32 0, i32 38
  %58 = load i32, ptr %57, align 4
  %59 = icmp eq i32 %58, 1
  br i1 %59, label %60, label %63

60:                                               ; preds = %55
  %61 = load i32, ptr %6, align 4
  %62 = and i32 %61, -225
  store i32 %62, ptr %6, align 4
  br label %63

63:                                               ; preds = %60, %55
  %64 = load ptr, ptr %4, align 8
  %65 = getelementptr inbounds %struct.png_struct_def, ptr %64, i32 0, i32 37
  %66 = load i32, ptr %65, align 8
  %67 = icmp eq i32 %66, 1
  br i1 %67, label %68, label %71

68:                                               ; preds = %63
  %69 = load i32, ptr %6, align 4
  %70 = and i32 %69, -209
  store i32 %70, ptr %6, align 4
  br label %71

71:                                               ; preds = %68, %63
  %72 = load i32, ptr %6, align 4
  %73 = and i32 %72, 224
  %74 = icmp ne i32 %73, 0
  br i1 %74, label %75, label %84

75:                                               ; preds = %71
  %76 = load ptr, ptr %4, align 8
  %77 = getelementptr inbounds %struct.png_struct_def, ptr %76, i32 0, i32 45
  %78 = load ptr, ptr %77, align 8
  %79 = icmp eq ptr %78, null
  br i1 %79, label %80, label %84

80:                                               ; preds = %75
  %81 = load ptr, ptr %4, align 8
  call void @png_app_warning(ptr noundef %81, ptr noundef @.str.8)
  %82 = load i32, ptr %6, align 4
  %83 = and i32 %82, -225
  store i32 %83, ptr %6, align 4
  br label %84

84:                                               ; preds = %80, %75, %71
  store i32 0, ptr %7, align 4
  %85 = load i32, ptr %6, align 4
  %86 = and i32 %85, 16
  %87 = icmp ne i32 %86, 0
  br i1 %87, label %88, label %91

88:                                               ; preds = %84
  %89 = load i32, ptr %7, align 4
  %90 = add nsw i32 %89, 1
  store i32 %90, ptr %7, align 4
  br label %91

91:                                               ; preds = %88, %84
  %92 = load i32, ptr %6, align 4
  %93 = and i32 %92, 32
  %94 = icmp ne i32 %93, 0
  br i1 %94, label %95, label %98

95:                                               ; preds = %91
  %96 = load i32, ptr %7, align 4
  %97 = add nsw i32 %96, 1
  store i32 %97, ptr %7, align 4
  br label %98

98:                                               ; preds = %95, %91
  %99 = load i32, ptr %6, align 4
  %100 = and i32 %99, 64
  %101 = icmp ne i32 %100, 0
  br i1 %101, label %102, label %105

102:                                              ; preds = %98
  %103 = load i32, ptr %7, align 4
  %104 = add nsw i32 %103, 1
  store i32 %104, ptr %7, align 4
  br label %105

105:                                              ; preds = %102, %98
  %106 = load i32, ptr %6, align 4
  %107 = and i32 %106, 128
  %108 = icmp ne i32 %107, 0
  br i1 %108, label %109, label %112

109:                                              ; preds = %105
  %110 = load i32, ptr %7, align 4
  %111 = add nsw i32 %110, 1
  store i32 %111, ptr %7, align 4
  br label %112

112:                                              ; preds = %109, %105
  %113 = load ptr, ptr %4, align 8
  %114 = getelementptr inbounds %struct.png_struct_def, ptr %113, i32 0, i32 66
  %115 = load i8, ptr %114, align 4
  %116 = zext i8 %115 to i32
  %117 = load ptr, ptr %4, align 8
  %118 = getelementptr inbounds %struct.png_struct_def, ptr %117, i32 0, i32 63
  %119 = load i8, ptr %118, align 1
  %120 = zext i8 %119 to i32
  %121 = mul nsw i32 %116, %120
  %122 = icmp sge i32 %121, 8
  br i1 %122, label %123, label %140

123:                                              ; preds = %112
  %124 = load ptr, ptr %4, align 8
  %125 = getelementptr inbounds %struct.png_struct_def, ptr %124, i32 0, i32 37
  %126 = load i32, ptr %125, align 8
  %127 = zext i32 %126 to i64
  %128 = load ptr, ptr %4, align 8
  %129 = getelementptr inbounds %struct.png_struct_def, ptr %128, i32 0, i32 66
  %130 = load i8, ptr %129, align 4
  %131 = zext i8 %130 to i32
  %132 = load ptr, ptr %4, align 8
  %133 = getelementptr inbounds %struct.png_struct_def, ptr %132, i32 0, i32 63
  %134 = load i8, ptr %133, align 1
  %135 = zext i8 %134 to i32
  %136 = mul nsw i32 %131, %135
  %137 = sext i32 %136 to i64
  %138 = lshr i64 %137, 3
  %139 = mul i64 %127, %138
  br label %158

140:                                              ; preds = %112
  %141 = load ptr, ptr %4, align 8
  %142 = getelementptr inbounds %struct.png_struct_def, ptr %141, i32 0, i32 37
  %143 = load i32, ptr %142, align 8
  %144 = zext i32 %143 to i64
  %145 = load ptr, ptr %4, align 8
  %146 = getelementptr inbounds %struct.png_struct_def, ptr %145, i32 0, i32 66
  %147 = load i8, ptr %146, align 4
  %148 = zext i8 %147 to i32
  %149 = load ptr, ptr %4, align 8
  %150 = getelementptr inbounds %struct.png_struct_def, ptr %149, i32 0, i32 63
  %151 = load i8, ptr %150, align 1
  %152 = zext i8 %151 to i32
  %153 = mul nsw i32 %148, %152
  %154 = sext i32 %153 to i64
  %155 = mul i64 %144, %154
  %156 = add i64 %155, 7
  %157 = lshr i64 %156, 3
  br label %158

158:                                              ; preds = %140, %123
  %159 = phi i64 [ %139, %123 ], [ %157, %140 ]
  %160 = add i64 %159, 1
  store i64 %160, ptr %8, align 8
  %161 = load ptr, ptr %4, align 8
  %162 = getelementptr inbounds %struct.png_struct_def, ptr %161, i32 0, i32 47
  %163 = load ptr, ptr %162, align 8
  %164 = icmp eq ptr %163, null
  br i1 %164, label %165, label %171

165:                                              ; preds = %158
  %166 = load ptr, ptr %4, align 8
  %167 = load i64, ptr %8, align 8
  %168 = call noalias ptr @png_malloc(ptr noundef %166, i64 noundef %167)
  %169 = load ptr, ptr %4, align 8
  %170 = getelementptr inbounds %struct.png_struct_def, ptr %169, i32 0, i32 47
  store ptr %168, ptr %170, align 8
  br label %171

171:                                              ; preds = %165, %158
  %172 = load i32, ptr %7, align 4
  %173 = icmp sgt i32 %172, 1
  br i1 %173, label %174, label %186

174:                                              ; preds = %171
  %175 = load ptr, ptr %4, align 8
  %176 = getelementptr inbounds %struct.png_struct_def, ptr %175, i32 0, i32 48
  %177 = load ptr, ptr %176, align 8
  %178 = icmp eq ptr %177, null
  br i1 %178, label %179, label %185

179:                                              ; preds = %174
  %180 = load ptr, ptr %4, align 8
  %181 = load i64, ptr %8, align 8
  %182 = call noalias ptr @png_malloc(ptr noundef %180, i64 noundef %181)
  %183 = load ptr, ptr %4, align 8
  %184 = getelementptr inbounds %struct.png_struct_def, ptr %183, i32 0, i32 48
  store ptr %182, ptr %184, align 8
  br label %185

185:                                              ; preds = %179, %174
  br label %186

186:                                              ; preds = %185, %171
  br label %187

187:                                              ; preds = %186, %50
  %188 = load i32, ptr %6, align 4
  %189 = trunc i32 %188 to i8
  %190 = load ptr, ptr %4, align 8
  %191 = getelementptr inbounds %struct.png_struct_def, ptr %190, i32 0, i32 60
  store i8 %189, ptr %191, align 2
  br label %194

192:                                              ; preds = %22
  %193 = load ptr, ptr %4, align 8
  call void @png_error(ptr noundef %193, ptr noundef @.str.9) #7
  unreachable

194:                                              ; preds = %187, %11
  ret void
}