; Function Attrs: nounwind uwtable
define void @png_set_filter(ptr noalias noundef %0, i32 noundef %1, i32 noundef %2) local_unnamed_addr #0 {
  %4 = icmp eq ptr %0, null
  br i1 %4, label %87, label %5

5:                                                ; preds = %3
  %6 = getelementptr inbounds i8, ptr %0, i64 992
  %7 = load i32, ptr %6, align 8
  %8 = and i32 %7, 4
  %9 = icmp ne i32 %8, 0
  %10 = icmp eq i32 %1, 64
  %or.cond = and i1 %10, %9
  %11 = icmp eq i32 %1, 0
  %12 = or i1 %11, %or.cond
  br i1 %12, label %13, label %86

13:                                               ; preds = %5
  %trunc = trunc i32 %2 to i8
  switch i8 %trunc, label %19 [
    i8 5, label %14
    i8 6, label %14
    i8 7, label %14
    i8 0, label %20
    i8 1, label %15
    i8 2, label %16
    i8 3, label %17
    i8 4, label %18
  ]

14:                                               ; preds = %13, %13, %13
  tail call void @png_app_error(ptr noundef nonnull %0, ptr noundef nonnull @.str.7) #15
  br label %20

15:                                               ; preds = %13
  br label %20

16:                                               ; preds = %13
  br label %20

17:                                               ; preds = %13
  br label %20

18:                                               ; preds = %13
  br label %20

19:                                               ; preds = %13
  br label %20

20:                                               ; preds = %13, %14, %19, %18, %17, %16, %15
  %trunc.sink = phi i8 [ %trunc, %19 ], [ -128, %18 ], [ 64, %17 ], [ 32, %16 ], [ 16, %15 ], [ 8, %14 ], [ 8, %13 ]
  %21 = getelementptr inbounds i8, ptr %0, i64 614
  store i8 %trunc.sink, ptr %21, align 2
  %22 = getelementptr inbounds i8, ptr %0, i64 552
  %23 = load ptr, ptr %22, align 8
  %.not = icmp eq ptr %23, null
  br i1 %.not, label %83, label %24

24:                                               ; preds = %20
  %25 = getelementptr inbounds i8, ptr %0, i64 508
  %26 = load i32, ptr %25, align 4
  %27 = icmp eq i32 %26, 1
  %28 = and i32 %2, -225
  %spec.select = select i1 %27, i32 %28, i32 %2
  %29 = getelementptr inbounds i8, ptr %0, i64 504
  %30 = load i32, ptr %29, align 8
  %31 = icmp eq i32 %30, 1
  %32 = and i32 %spec.select, -209
  %.151 = select i1 %31, i32 %32, i32 %spec.select
  %33 = and i32 %.151, 224
  %.not57 = icmp eq i32 %33, 0
  br i1 %.not57, label %40, label %34

34:                                               ; preds = %24
  %35 = getelementptr inbounds i8, ptr %0, i64 544
  %36 = load ptr, ptr %35, align 8
  %37 = icmp eq ptr %36, null
  br i1 %37, label %38, label %40

38:                                               ; preds = %34
  tail call void @png_app_warning(ptr noundef nonnull %0, ptr noundef nonnull @.str.8) #15
  %39 = and i32 %.151, -225
  br label %40

40:                                               ; preds = %38, %34, %24
  %.252 = phi i32 [ %39, %38 ], [ %.151, %34 ], [ %.151, %24 ]
  %41 = lshr i32 %.252, 4
  %.lobit = and i32 %41, 1
  %42 = lshr i32 %.252, 5
  %43 = and i32 %42, 1
  %.1 = add nuw nsw i32 %.lobit, %43
  %44 = lshr i32 %.252, 6
  %45 = and i32 %44, 1
  %.2 = add nuw nsw i32 %.1, %45
  %46 = lshr i32 %.252, 7
  %47 = and i32 %46, 1
  %.3 = add nuw nsw i32 %.2, %47
  %48 = getelementptr inbounds i8, ptr %0, i64 620
  %49 = load i8, ptr %48, align 4
  %50 = zext i8 %49 to i32
  %51 = getelementptr inbounds i8, ptr %0, i64 617
  %52 = load i8, ptr %51, align 1
  %53 = zext i8 %52 to i32
  %54 = mul nuw nsw i32 %53, %50
  %55 = icmp ugt i32 %54, 7
  %56 = load i32, ptr %29, align 8
  %57 = zext i32 %56 to i64
  br i1 %55, label %58, label %62

58:                                               ; preds = %40
  %59 = lshr i32 %54, 3
  %60 = zext nneg i32 %59 to i64
  %61 = mul nuw nsw i64 %57, %60
  br label %67

62:                                               ; preds = %40
  %63 = zext nneg i32 %54 to i64
  %64 = mul nuw nsw i64 %57, %63
  %65 = add nuw nsw i64 %64, 7
  %66 = lshr i64 %65, 3
  br label %67

67:                                               ; preds = %62, %58
  %68 = phi i64 [ %61, %58 ], [ %66, %62 ]
  %69 = add nuw nsw i64 %68, 1
  %70 = getelementptr inbounds i8, ptr %0, i64 560
  %71 = load ptr, ptr %70, align 8
  %72 = icmp eq ptr %71, null
  br i1 %72, label %73, label %75

73:                                               ; preds = %67
  %74 = tail call noalias ptr @png_malloc(ptr noundef nonnull %0, i64 noundef %69) #15
  store ptr %74, ptr %70, align 8
  br label %75

75:                                               ; preds = %73, %67
  %76 = icmp ugt i32 %.3, 1
  br i1 %76, label %77, label %83

77:                                               ; preds = %75
  %78 = getelementptr inbounds i8, ptr %0, i64 568
  %79 = load ptr, ptr %78, align 8
  %80 = icmp eq ptr %79, null
  br i1 %80, label %81, label %83

81:                                               ; preds = %77
  %82 = tail call noalias ptr @png_malloc(ptr noundef nonnull %0, i64 noundef %69) #15
  store ptr %82, ptr %78, align 8
  br label %83

83:                                               ; preds = %75, %81, %77, %20
  %.353 = phi i32 [ %.252, %81 ], [ %.252, %77 ], [ %.252, %75 ], [ %2, %20 ]
  %84 = trunc i32 %.353 to i8
  %85 = getelementptr inbounds i8, ptr %0, i64 614
  store i8 %84, ptr %85, align 2
  br label %87

86:                                               ; preds = %5
  tail call void @png_error(ptr noundef nonnull %0, ptr noundef nonnull @.str.9) #16
  unreachable

87:                                               ; preds = %3, %83
  ret void
}